target datalayout = "e-m:e-p270:32:32-p271:32:32-p272:64:64-i64:64-i128:128-f80:128-n8:16:32:64-S128"
target triple = "x86_64-pc-linux-gnu"

%struct.formnode = type { i16, i16, i16, i32, i32, i32, i32, i16, i16, i16, i32, ptr, ptr, ptr, ptr, ptr, ptr, ptr, ptr, ptr, ptr, ptr }
%struct.fieldnode = type { i16, i16, i16, i16, i16, i32, i32, i32, i32, i16, i16, i16, i16, i32, i32, i32, i32, ptr, ptr, ptr, ptr, ptr, ptr, ptr, ptr }

; Function Attrs: nounwind uwtable
define internal void @Adjust_Cursor_Position(ptr noundef %0, ptr noundef %1) #0 {
  %3 = alloca ptr, align 8
  %4 = alloca ptr, align 8
  %5 = alloca ptr, align 8
  %6 = alloca i32, align 4
  store ptr %0, ptr %3, align 8, !tbaa !4
  store ptr %1, ptr %4, align 8, !tbaa !55
  call void @llvm.lifetime.start.p0(i64 8, ptr %5) #9
  call void @llvm.lifetime.start.p0(i64 4, ptr %6) #9
  %7 = load ptr, ptr %3, align 8, !tbaa !4
  %8 = getelementptr inbounds nuw %struct.formnode, ptr %7, i32 0, i32 15
  %9 = load ptr, ptr %8, align 8, !tbaa !16
  store ptr %9, ptr %5, align 8, !tbaa !17
  %10 = load ptr, ptr %4, align 8, !tbaa !55
  %11 = load ptr, ptr %5, align 8, !tbaa !17
  %12 = getelementptr inbounds nuw %struct.fieldnode, ptr %11, i32 0, i32 23
  %13 = load ptr, ptr %12, align 8, !tbaa !54
  %14 = ptrtoint ptr %10 to i64
  %15 = ptrtoint ptr %13 to i64
  %16 = sub i64 %14, %15
  %17 = trunc i64 %16 to i32
  store i32 %17, ptr %6, align 4, !tbaa !35
  %18 = load i32, ptr %6, align 4, !tbaa !35
  %19 = load ptr, ptr %5, align 8, !tbaa !17
  %20 = getelementptr inbounds nuw %struct.fieldnode, ptr %19, i32 0, i32 6
  %21 = load i32, ptr %20, align 8, !tbaa !29
  %22 = sdiv i32 %18, %21
  %23 = load ptr, ptr %3, align 8, !tbaa !4
  %24 = getelementptr inbounds nuw %struct.formnode, ptr %23, i32 0, i32 3
  store i32 %22, ptr %24, align 8, !tbaa !21
  %25 = load i32, ptr %6, align 4, !tbaa !35
  %26 = load ptr, ptr %5, align 8, !tbaa !17
  %27 = getelementptr inbounds nuw %struct.fieldnode, ptr %26, i32 0, i32 2
  %28 = load i16, ptr %27, align 4, !tbaa !30
  %29 = sext i16 %28 to i32
  %30 = load ptr, ptr %3, align 8, !tbaa !4
  %31 = getelementptr inbounds nuw %struct.formnode, ptr %30, i32 0, i32 3
  %32 = load i32, ptr %31, align 8, !tbaa !21
  %33 = mul nsw i32 %29, %32
  %34 = sub nsw i32 %25, %33
  %35 = load ptr, ptr %3, align 8, !tbaa !4
  %36 = getelementptr inbounds nuw %struct.formnode, ptr %35, i32 0, i32 4
  store i32 %34, ptr %36, align 4, !tbaa !22
  %37 = load ptr, ptr %5, align 8, !tbaa !17
  %38 = getelementptr inbounds nuw %struct.fieldnode, ptr %37, i32 0, i32 5
  %39 = load i32, ptr %38, align 4, !tbaa !27
  %40 = load ptr, ptr %3, align 8, !tbaa !4
  %41 = getelementptr inbounds nuw %struct.formnode, ptr %40, i32 0, i32 3
  %42 = load i32, ptr %41, align 8, !tbaa !21
  %43 = icmp slt i32 %39, %42
  br i1 %43, label %44, label %47

44:                                               ; preds = %2
  %45 = load ptr, ptr %3, align 8, !tbaa !4
  %46 = getelementptr inbounds nuw %struct.formnode, ptr %45, i32 0, i32 3
  store i32 0, ptr %46, align 8, !tbaa !21
  br label %47

47:                                               ; preds = %44, %2
  call void @llvm.lifetime.end.p0(i64 4, ptr %6) #9
  call void @llvm.lifetime.end.p0(i64 8, ptr %5) #9
  ret void
}

; Function Attrs: nounwind uwtable
define internal ptr @After_End_Of_Data(ptr noundef %0, i32 noundef %1) #0 {
  %3 = alloca ptr, align 8
  %4 = alloca i32, align 4
  %5 = alloca ptr, align 8
  store ptr %0, ptr %3, align 8, !tbaa !55
  store i32 %1, ptr %4, align 4, !tbaa !35
  call void @llvm.lifetime.start.p0(i64 8, ptr %5) #9
  %6 = load ptr, ptr %3, align 8, !tbaa !55
  %7 = load i32, ptr %4, align 4, !tbaa !35
  %8 = sext i32 %7 to i64
  %9 = getelementptr inbounds i8, ptr %6, i64 %8
  store ptr %9, ptr %5, align 8, !tbaa !55
  br label %10

10:                                               ; preds = %22, %2
  %11 = load ptr, ptr %5, align 8, !tbaa !55
  %12 = load ptr, ptr %3, align 8, !tbaa !55
  %13 = icmp ugt ptr %11, %12
  br i1 %13, label %14, label %20

14:                                               ; preds = %10
  %15 = load ptr, ptr %5, align 8, !tbaa !55
  %16 = getelementptr inbounds i8, ptr %15, i64 -1
  %17 = load i8, ptr %16, align 1, !tbaa !65
  %18 = sext i8 %17 to i32
  %19 = icmp eq i32 %18, 32
  br label %20

20:                                               ; preds = %14, %10
  %21 = phi i1 [ false, %10 ], [ %19, %14 ]
  br i1 %21, label %22, label %25

22:                                               ; preds = %20
  %23 = load ptr, ptr %5, align 8, !tbaa !55
  %24 = getelementptr inbounds i8, ptr %23, i32 -1
  store ptr %24, ptr %5, align 8, !tbaa !55
  br label %10, !llvm.loop !116

25:                                               ; preds = %20
  %26 = load ptr, ptr %5, align 8, !tbaa !55
  call void @llvm.lifetime.end.p0(i64 8, ptr %5) #9
  ret ptr %26
}

; Function Attrs: nounwind uwtable
define internal i32 @IFN_End_Of_Field(ptr noundef %0) #0 {
  %2 = alloca ptr, align 8
  %3 = alloca ptr, align 8
  %4 = alloca ptr, align 8
  store ptr %0, ptr %2, align 8, !tbaa !4
  call void @llvm.lifetime.start.p0(i64 8, ptr %3) #9
  %5 = load ptr, ptr %2, align 8, !tbaa !4
  %6 = getelementptr inbounds nuw %struct.formnode, ptr %5, i32 0, i32 15
  %7 = load ptr, ptr %6, align 8, !tbaa !16
  store ptr %7, ptr %3, align 8, !tbaa !17
  call void @llvm.lifetime.start.p0(i64 8, ptr %4) #9
  %8 = load ptr, ptr %2, align 8, !tbaa !4
  call void @Synchronize_Buffer(ptr noundef %8)
  %9 = load ptr, ptr %3, align 8, !tbaa !17
  %10 = getelementptr inbounds nuw %struct.fieldnode, ptr %9, i32 0, i32 23
  %11 = load ptr, ptr %10, align 8, !tbaa !54
  %12 = load ptr, ptr %3, align 8, !tbaa !17
  %13 = getelementptr inbounds nuw %struct.fieldnode, ptr %12, i32 0, i32 5
  %14 = load i32, ptr %13, align 4, !tbaa !27
  %15 = load ptr, ptr %3, align 8, !tbaa !17
  %16 = getelementptr inbounds nuw %struct.fieldnode, ptr %15, i32 0, i32 6
  %17 = load i32, ptr %16, align 8, !tbaa !29
  %18 = mul nsw i32 %14, %17
  %19 = call ptr @After_End_Of_Data(ptr noundef %11, i32 noundef %18)
  store ptr %19, ptr %4, align 8, !tbaa !55
  %20 = load ptr, ptr %4, align 8, !tbaa !55
  %21 = load ptr, ptr %3, align 8, !tbaa !17
  %22 = getelementptr inbounds nuw %struct.fieldnode, ptr %21, i32 0, i32 23
  %23 = load ptr, ptr %22, align 8, !tbaa !54
  %24 = load ptr, ptr %3, align 8, !tbaa !17
  %25 = getelementptr inbounds nuw %struct.fieldnode, ptr %24, i32 0, i32 5
  %26 = load i32, ptr %25, align 4, !tbaa !27
  %27 = load ptr, ptr %3, align 8, !tbaa !17
  %28 = getelementptr inbounds nuw %struct.fieldnode, ptr %27, i32 0, i32 6
  %29 = load i32, ptr %28, align 8, !tbaa !29
  %30 = mul nsw i32 %26, %29
  %31 = sext i32 %30 to i64
  %32 = getelementptr inbounds i8, ptr %23, i64 %31
  %33 = icmp eq ptr %20, %32
  br i1 %33, label %34, label %37

34:                                               ; preds = %1
  %35 = load ptr, ptr %4, align 8, !tbaa !55
  %36 = getelementptr inbounds i8, ptr %35, i32 -1
  store ptr %36, ptr %4, align 8, !tbaa !55
  br label %37

37:                                               ; preds = %34, %1
  %38 = load ptr, ptr %2, align 8, !tbaa !4
  %39 = load ptr, ptr %4, align 8, !tbaa !55
  call void @Adjust_Cursor_Position(ptr noundef %38, ptr noundef %39)
  call void @llvm.lifetime.end.p0(i64 8, ptr %4) #9
  call void @llvm.lifetime.end.p0(i64 8, ptr %3) #9
  ret i32 0
}