; Function Attrs: nounwind uwtable
define internal noundef i32 @IFN_End_Of_Field(ptr noundef captures(none) %0) #0 {
  %2 = getelementptr inbounds nuw i8, ptr %0, i64 72
  %3 = load ptr, ptr %2, align 8, !tbaa !14
  tail call fastcc void @Synchronize_Buffer(ptr noundef %0)
  %4 = getelementptr inbounds nuw i8, ptr %3, i64 104
  %5 = load ptr, ptr %4, align 8, !tbaa !52
  %6 = getelementptr inbounds nuw i8, ptr %3, i64 12
  %7 = load i32, ptr %6, align 4, !tbaa !24
  %8 = getelementptr inbounds nuw i8, ptr %3, i64 16
  %9 = load i32, ptr %8, align 8, !tbaa !26
  %10 = mul nsw i32 %9, %7
  %11 = sext i32 %10 to i64
  %12 = getelementptr inbounds i8, ptr %5, i64 %11
  br label %13

13:                                               ; preds = %15, %1
  %.0.i = phi ptr [ %12, %1 ], [ %16, %15 ]
  %14 = icmp ugt ptr %.0.i, %5
  br i1 %14, label %15, label %After_End_Of_Data.exit

15:                                               ; preds = %13
  %16 = getelementptr inbounds i8, ptr %.0.i, i64 -1
  %17 = load i8, ptr %16, align 1, !tbaa !54
  %18 = icmp eq i8 %17, 32
  br i1 %18, label %13, label %After_End_Of_Data.exit, !llvm.loop !57

After_End_Of_Data.exit:                           ; preds = %13, %15
  %19 = icmp eq ptr %.0.i, %12
  %spec.select.idx = sext i1 %19 to i64
  %spec.select = getelementptr inbounds i8, ptr %.0.i, i64 %spec.select.idx
  %20 = load ptr, ptr %2, align 8, !tbaa !14
  %21 = getelementptr inbounds nuw i8, ptr %20, i64 104
  %22 = load ptr, ptr %21, align 8, !tbaa !52
  %23 = ptrtoint ptr %spec.select to i64
  %24 = ptrtoint ptr %22 to i64
  %25 = sub i64 %23, %24
  %26 = trunc i64 %25 to i32
  %27 = getelementptr inbounds nuw i8, ptr %20, i64 16
  %28 = load i32, ptr %27, align 8, !tbaa !26
  %29 = sdiv i32 %26, %28
  %30 = getelementptr inbounds nuw i8, ptr %0, i64 8
  store i32 %29, ptr %30, align 8, !tbaa !17
  %31 = getelementptr inbounds nuw i8, ptr %20, i64 4
  %32 = load i16, ptr %31, align 4, !tbaa !27
  %33 = sext i16 %32 to i32
  %34 = mul nsw i32 %29, %33
  %35 = sub nsw i32 %26, %34
  %36 = getelementptr inbounds nuw i8, ptr %0, i64 12
  store i32 %35, ptr %36, align 4, !tbaa !18
  %37 = getelementptr inbounds nuw i8, ptr %20, i64 12
  %38 = load i32, ptr %37, align 4, !tbaa !24
  %39 = icmp slt i32 %38, %29
  br i1 %39, label %40, label %Adjust_Cursor_Position.exit

40:                                               ; preds = %After_End_Of_Data.exit
  store i32 0, ptr %30, align 8, !tbaa !17
  br label %Adjust_Cursor_Position.exit

Adjust_Cursor_Position.exit:                      ; preds = %After_End_Of_Data.exit, %40
  ret i32 0
}